ccopy_reg
_reconstructor
p0
(cdebian_linux.config
ConfigCore
p1
c__builtin__
dict
p2
(dp3
(S'image'
p4
S'amd64'
p5
tp6
(dp7
S'install-stem'
p8
S'vmlinuz'
p9
sS'configs'
p10
(lp11
sS'bootloaders'
p12
(lp13
S'grub-pc'
p14
aS'grub-efi'
p15
aS'extlinux'
p16
ass(S'description'
p17
S'mips64'
p18
NS'sb1-bcm91250a'
p19
tp20
(dp21
S'hardware'
p22
S'BCM91250A'
p23
sS'hardware-long'
p24
S'Broadcom BCM91250A systems (aka SWARM)'
p25
ss(S'description'
p26
S'sh4'
p27
NS'sh7751r'
p28
tp29
(dp30
S'hardware'
p31
S'sh7751r'
p32
sS'hardware-long'
p33
S'Renesas SH7751R R2D plus board'
p34
ss(S'base'
p35
g5
S'none'
p36
tp37
(dp38
S'flavours'
p39
(lp40
S'amd64'
p41
ass(S'description'
p42
S'alpha'
p43
NS'alpha-smp'
p44
tp45
(dp46
S'hardware'
p47
S'Alpha SMP'
p48
sS'hardware-long'
p49
S'DEC Alpha SMP systems with extended kernel start address (Wildfire, Titan, Marvel)'
p50
ss(S'image'
p51
S'mips'
p52
NS'4kc-malta'
p53
tp54
(dp55
S'configs'
p56
(lp57
S'kernelarch-mips/config.4kc-malta'
p58
ass(S'image'
p59
g52
NS'octeon'
p60
tp61
(dp62
S'configs'
p63
(lp64
S'kernelarch-mips/config.octeon'
p65
ass(S'image'
p66
S'ia64'
p67
tp68
(dp69
S'suggests'
p70
S'fdutils'
p71
sS'bootloaders'
p72
(lp73
S'elilo'
p74
asS'install-stem'
p75
S'vmlinuz'
p76
ss(S'abi'
p77
NS'rt'
p78
tp79
(dp80
S'ignore-changes'
p81
(lp82
S'*'
p83
ass(S'image'
p84
S'i386'
p85
NS'586'
p86
tp87
(dp88
S'configs'
p89
(lp90
S'kernelarch-x86/config-arch-32'
p91
aS'i386/config.586'
p92
ass(S'description'
p93
S'arm64'
p94
NS'arm64'
p95
tp96
(dp97
S'hardware'
p98
S'64-bit ARMv8 machines'
p99
ss(S'version'
p100
tp101
(dp102
S'abiname'
p103
S'3.19.0-trunk'
p104
sS'source'
p105
V3.19.3-1~exp1
p106
sS'abiname_base'
p107
S'3.19.0'
p108
sS'upstream'
p109
S'3.19'
p110
ss(S'description'
p111
S'powerpc'
p112
NS'powerpc-smp'
p113
tp114
(dp115
S'hardware'
p116
S'multiprocessor 32-bit PowerPC'
p117
ss(S'description'
p118
g5
g36
S'amd64'
p119
tp120
(dp121
S'parts'
p122
(lp123
S'xen'
p124
ass(S'description'
p125
g18
NS'5kc-malta'
p126
tp127
(dp128
S'hardware'
p129
S'MIPS Malta'
p130
sS'hardware-long'
p131
S'MIPS Malta boards'
p132
ss(S'base'
p133
S'ppc64'
p134
S'none'
p135
tp136
(dp137
S'implicit-flavour'
p138
I01
sS'flavours'
p139
(lp140
S'powerpc64'
p141
ass(S'description'
p142
S'hppa'
p143
NS'parisc'
p144
tp145
(dp146
S'hardware'
p147
S'32-bit PA-RISC'
p148
sS'hardware-long'
p149
S'HP PA-RISC 32-bit systems with max 4 GB RAM'
p150
ss(S'description'
p151
g52
NS'r4k-ip22'
p152
tp153
(dp154
S'hardware'
p155
S'SGI IP22'
p156
sS'hardware-long'
p157
S'SGI IP22 systems (Indy, Indigo2)'
p158
ss(S'image'
p159
g27
NS'sh7785lcr'
p160
tp161
(dp162
S'check-size'
p163
I4194304
sS'recommends'
p164
S'uboot-mkimage'
p165
ss(S'description'
p166
g85
S'none'
p167
S'amd64'
p168
tp169
(dp170
S'parts'
p171
(lp172
S'xen'
p173
ass(S'description'
p174
g85
NS'686-pae'
p175
tp176
(dp177
S'hardware'
p178
S'modern PCs'
p179
sS'parts'
p180
(lp181
S'pae'
p182
asS'hardware-long'
p183
S'PCs with one or more processors supporting PAE'
p184
ss(S'description'
p185
g112
NS'powerpc'
p186
tp187
(dp188
S'hardware'
p189
S'uniprocessor 32-bit PowerPC'
p190
ss(S'base'
p191
g43
tp192
(dp193
S'kernel-arch'
p194
S'alpha'
p195
sS'featuresets'
p196
(lp197
g135
ass(S'description'
p198
g52
NS'5kc-malta'
p199
tp200
(dp201
S'hardware'
p202
S'MIPS Malta (64-bit)'
p203
sS'hardware-long'
p204
S'MIPS Malta boards (64-bit)'
p205
ss(S'image'
p206
g18
NS'octeon'
p207
tp208
(dp209
S'configs'
p210
(lp211
S'kernelarch-mips/config.octeon'
p212
ass(g133
S'armhf'
p213
g135
tp214
(dp215
g138
I01
sg139
(lp216
S'armmp'
p217
aS'armmp-lpae'
p218
ass(S'description'
p219
g52
NS'sb1-bcm91250a'
p220
tp221
(dp222
S'hardware'
p223
S'BCM91250A'
p224
sS'hardware-long'
p225
S'Broadcom BCM91250A systems (aka SWARM)'
p226
ss(S'base'
p227
g85
S'rt'
p228
tp229
(dp230
S'flavours'
p231
(lp232
S'686-pae'
p233
ass(S'description'
p234
S'mipsel'
p235
NS'sb1-bcm91250a'
p236
tp237
(dp238
S'hardware'
p239
S'BCM91250A'
p240
sS'hardware-long'
p241
S'Broadcom BCM91250A systems (aka SWARM)'
p242
ss(S'image'
p243
g235
NS'loongson-3'
p244
tp245
(dp246
S'configs'
p247
(lp248
S'kernelarch-mips/config.loongson-3'
p249
ass(S'relations'
p250
g85
tp251
(dp252
S'headers%gcc-4.9'
p253
S'linux-compiler-gcc-4.9-x86'
p254
ss(S'image'
p255
g235
NS'4kc-malta'
p256
tp257
(dp258
S'configs'
p259
(lp260
S'kernelarch-mips/config.4kc-malta'
p261
ass(S'description'
p262
g235
NS'loongson-3'
p263
tp264
(dp265
S'hardware'
p266
S'Loongson 3A/3B'
p267
sS'hardware-long'
p268
S'Loongson 3A or 3B based systems (e.g. from Loongson or Lemote)'
p269
ss(S'image'
p270
g112
tp271
(dp272
S'suggests'
p273
S'mkvmlinuz'
p274
sS'configs'
p275
(lp276
sS'install-stem'
p277
S'vmlinux'
p278
ss(S'description'
p279
g43
NS'alpha-generic'
p280
tp281
(dp282
S'hardware'
p283
S'Alpha'
p284
sS'hardware-long'
p285
S'DEC Alpha systems with extended kernel start address (Wildfire, Titan, Marvel)'
p286
ss(S'description'
p287
S'sparc64'
p288
NS'sparc64'
p289
tp290
(dp291
S'hardware'
p292
S'uniprocessor 64-bit UltraSPARC'
p293
ss(S'base'
p294
g5
S'rt'
p295
tp296
(dp297
S'flavours'
p298
(lp299
S'amd64'
p300
ass(S'build'
p301
S'ppc64el'
p302
tp303
(dp304
S'image-file'
p305
S'vmlinux'
p306
ss(S'build'
p307
g134
tp308
(dp309
S'image-file'
p310
S'vmlinux'
p311
ss(S'description'
p312
g52
NS'octeon'
p313
tp314
(dp315
S'hardware'
p316
S'Octeon'
p317
sS'hardware-long'
p318
S'Cavium Networks Octeon'
p319
ss(S'image'
p320
g94
NS'arm64'
p321
tp322
(dp323
s(S'image'
p324
S'armel'
p325
NS'orion5x'
p326
tp327
(dp328
S'check-size'
p329
I1572792
sS'check-size-with-dtb'
p330
I01
sS'configs'
p331
(lp332
S'armel/config-reduced'
p333
aS'armel/config.orion5x'
p334
asS'recommends'
p335
S'uboot-mkimage'
p336
ss(S'base'
p337
g85
tp338
(dp339
S'kernel-arch'
p340
S'x86'
p341
sS'featuresets'
p342
(lp343
S'none'
p344
aS'rt'
p345
ass(S'base'
p346
g235
tp347
(dp348
S'kernel-arch'
p349
S'mips'
p350
sg196
(lp351
g135
ass(S'relations'
p352
g5
tp353
(dp354
S'headers%gcc-4.9'
p355
S'linux-compiler-gcc-4.9-x86'
p356
ss(S'description'
p357
S's390'
p358
NS's390x'
p359
tp360
(dp361
S'hardware'
p362
S'IBM zSeries'
p363
ss(S'image'
p364
g52
NS'sb1-bcm91250a'
p365
tp366
(dp367
S'configs'
p368
(lp369
S'kernelarch-mips/config.sb1-bcm91250a'
p370
ass(S'image'
p371
g213
NS'armmp-lpae'
p372
tp373
(dp374
S'configs'
p375
(lp376
S'armhf/config.armmp'
p377
aS'armhf/config.lpae'
p378
ass(S'relations'
p379
g358
tp380
(dp381
S'headers%gcc-4.8'
p382
S'linux-compiler-gcc-4.8-s390'
p383
ss(g133
g235
g135
tp384
(dp385
g138
I01
sg139
(lp386
S'sb1-bcm91250a'
p387
aS'4kc-malta'
p388
aS'5kc-malta'
p389
aS'loongson-2e'
p390
aS'loongson-2f'
p391
aS'loongson-3'
p392
ass(S'image'
p393
g85
NS'686-pae'
p394
tp395
(dp396
S'configs'
p397
(lp398
S'kernelarch-x86/config-arch-32'
p399
aS'i386/config.686-pae'
p400
asS'recommends'
p401
S'libc6-i686'
p402
ss(S'description'
p403
S'powerpcspe'
p404
tp405
(dp406
S'hardware'
p407
S'32-bit PowerPC with SPE (instead of AltiVec) with SMP support'
p408
ss(S'relations'
p409
tp410
(dp411
S'gcc-4.9'
p412
S'gcc-4.9'
p413
sS'gcc-4.8'
p414
S'gcc-4.8'
p415
sS'initramfs-fallback'
p416
S'linux-initramfs-tool'
p417
sS'gcc-4.7'
p418
S'gcc-4.7'
p419
sS'gcc-4.6'
p420
S'gcc-4.6'
p421
sS'initramfs-tools'
p422
S'initramfs-tools (>= 0.110~)'
p423
ss(S'image'
p424
g235
NS'loongson-2f'
p425
tp426
(dp427
S'configs'
p428
(lp429
S'kernelarch-mips/config.loongson-2f'
p430
asS'recommends'
p431
S'libc6-loongson2f'
p432
ss(S'description'
p433
g213
NS'armmp'
p434
tp435
(dp436
S'hardware'
p437
S'ARMv7 multiplatform compatible SoCs'
p438
sS'hardware-long'
p439
S'ARMv7 multiplatform kernel. See\nhttps://wiki.debian.org/DebianKernel/ARMMP for details of supported\nplatforms'
p440
ss(S'description'
p441
g18
NS'octeon'
p442
tp443
(dp444
S'hardware'
p445
S'Octeon'
p446
sS'hardware-long'
p447
S'Cavium Networks Octeon'
p448
ss(S'base'
p449
g27
tp450
(dp451
S'kernel-arch'
p452
S'sh'
p453
sg196
(lp454
g135
ass(S'build'
p455
g404
tp456
(dp457
S'image-file'
p458
S'vmlinux'
p459
ss(S'description'
p460
g325
NS'versatile'
p461
tp462
(dp463
S'hardware'
p464
S'Versatile'
p465
sS'hardware-long'
p466
S'Versatile systems (PB, AB, Qemu)'
p467
ss(S'build'
p468
g143
tp469
(dp470
S'image-file'
p471
S'vmlinux'
p472
ss(S'image'
p473
g43
tp474
(dp475
S'suggests'
p476
S'aboot, fdutils'
p477
sS'install-stem'
p478
S'vmlinuz'
p479
ss(S'description'
p480
g85
NS'586'
p481
tp482
(dp483
S'hardware'
p484
S'older PCs'
p485
sS'parts'
p486
(lp487
S'up'
p488
asS'hardware-long'
p489
S'PCs with a single processor not supporting PAE'
p490
ss(S'description'
p491
g288
NS'sparc64-smp'
p492
tp493
(dp494
S'hardware'
p495
S'multiprocessor 64-bit UltraSPARC'
p496
ss(S'description'
p497
S'mips64el'
p498
NS'octeon'
p499
tp500
(dp501
S'hardware'
p502
S'Octeon'
p503
sS'hardware-long'
p504
S'Cavium Networks Octeon'
p505
ss(S'description'
p506
g498
NS'sb1-bcm91250a'
p507
tp508
(dp509
S'hardware'
p510
S'BCM91250A'
p511
sS'hardware-long'
p512
S'Broadcom BCM91250A systems (aka SWARM)'
p513
ss(S'description'
p514
g498
NS'loongson-3'
p515
tp516
(dp517
S'hardware'
p518
S'Loongson 3A/3B'
p519
sS'hardware-long'
p520
S'Loongson 3A or 3B based systems (e.g. from Loongson or Lemote)'
p521
ss(S'image'
p522
g134
NS'powerpc64'
p523
tp524
(dp525
S'configs'
p526
(lp527
S'kernelarch-powerpc/config-arch-64'
p528
aS'kernelarch-powerpc/config-arch-64-be'
p529
ass(S'build'
p530
g358
NS's390x'
p531
tp532
(dp533
S'debug-info'
p534
I01
ss(S'description'
p535
g143
NS'parisc64-smp'
p536
tp537
(dp538
S'hardware'
p539
S'multiprocessor 64-bit PA-RISC'
p540
sS'hardware-long'
p541
S'HP PA-RISC 64-bit SMP systems with support for more than 4 GB RAM'
p542
ss(S'base'
p543
g404
tp544
(dp545
S'kernel-arch'
p546
S'powerpc'
p547
sg196
(lp548
g135
ass(g133
g112
g135
tp549
(dp550
g138
I01
sg139
(lp551
S'powerpc'
p552
aS'powerpc-smp'
p553
aS'powerpc64'
p554
ass(S'description'
p555
g67
NS'itanium'
p556
tp557
(dp558
S'hardware'
p559
S'Itanium'
p560
ss(g133
g358
g135
tp561
(dp562
g138
I01
sg139
(lp563
S's390x'
p564
ass(g133
S's390x'
p565
g135
tp566
(dp567
g138
I01
sg139
(lp568
S's390x'
p569
ass(S'base'
p570
g52
tp571
(dp572
S'kernel-arch'
p573
S'mips'
p574
sg196
(lp575
g135
ass(S'build'
p576
g5
tp577
(dp578
S'debug-info'
p579
I01
sS'image-file'
p580
S'arch/x86/boot/bzImage'
p581
ss(S'description'
p582
g498
NS'5kc-malta'
p583
tp584
(dp585
S'hardware'
p586
S'MIPS Malta'
p587
sS'hardware-long'
p588
S'MIPS Malta boards'
p589
ss(S'base'
p590
g143
NS'parisc64-smp'
p591
tp592
(dp593
S'override-host-type'
p594
S'hppa64-linux-gnu'
p595
sS'cflags'
p596
S'-fno-cse-follow-jumps'
p597
ss(S'image'
p598
g302
NS'powerpc64le'
p599
tp600
(dp601
S'configs'
p602
(lp603
S'kernelarch-powerpc/config-arch-64'
p604
aS'kernelarch-powerpc/config-arch-64-le'
p605
ass(S'build'
p606
S'sparc'
p607
tp608
(dp609
S'image-file'
p610
S'arch/sparc/boot/zImage'
p611
ss(S'image'
p612
g235
tp613
(dp614
S'install-stem'
p615
S'vmlinux'
p616
ss(S'description'
p617
g607
NS'sparc64-smp'
p618
tp619
(dp620
S'hardware'
p621
S'multiprocessor 64-bit UltraSPARC'
p622
ss(S'build'
p623
g112
tp624
(dp625
S'image-file'
p626
S'vmlinux'
p627
ss(S'build'
p628
g94
tp629
(dp630
S'debug-info'
p631
I01
sS'image-file'
p632
S'arch/arm64/boot/Image'
p633
ss(S'build'
p634
g235
tp635
(dp636
S'image-file'
p637
S'vmlinux'
p638
ss(S'base'
p639
g18
tp640
(dp641
S'kernel-arch'
p642
S'mips'
p643
sg196
(lp644
g135
ass(S'base'
p645
g565
tp646
(dp647
S'kernel-arch'
p648
S's390'
p649
sg196
(lp650
g135
asS'compiler'
p651
S'gcc-4.8'
p652
ss(S'base'
p653
g5
tp654
(dp655
S'kernel-arch'
p656
S'x86'
p657
sS'featuresets'
p658
(lp659
S'none'
p660
aS'rt'
p661
ass(S'base'
p662
g67
tp663
(dp664
S'kernel-arch'
p665
S'ia64'
p666
sg196
(lp667
g135
asS'compiler'
p668
S'gcc-4.6'
p669
ss(S'image'
p670
g235
NS'5kc-malta'
p671
tp672
(dp673
S'configs'
p674
(lp675
S'kernelarch-mips/config.5kc-malta'
p676
ass(S'base'
p677
g358
tp678
(dp679
S'kernel-arch'
p680
S's390'
p681
sg196
(lp682
g135
asS'compiler'
p683
S'gcc-4.8'
p684
ss(g133
g325
g135
tp685
(dp686
g138
I01
sg139
(lp687
S'kirkwood'
p688
aS'orion5x'
p689
aS'versatile'
p690
ass(S'description'
p691
g67
NS'mckinley'
p692
tp693
(dp694
S'hardware'
p695
S'Itanium II'
p696
ss(S'description'
p697
g235
NS'5kc-malta'
p698
tp699
(dp700
S'hardware'
p701
S'MIPS Malta (64-bit)'
p702
sS'hardware-long'
p703
S'MIPS Malta boards (64-bit)'
p704
ss(S'description'
p705
g85
tp706
(dp707
S'part-long-pae'
p708
S'This kernel requires PAE (Physical Address Extension).\nThis feature is supported by the Intel Pentium Pro/II/III/4/4M/D, Xeon,\nCore and Atom; AMD Geode NX, Athlon (K7), Duron, Opteron, Sempron,\nTurion or Phenom; Transmeta Efficeon; VIA C7; and some other processors.'
p709
ss(S'build'
p710
g498
tp711
(dp712
S'image-file'
p713
S'vmlinux'
p714
ss(S'xen'
p715
g5
g36
S'amd64'
p716
tp717
(dp718
S'flavours'
p719
(lp720
S'amd64'
p721
ass(S'image'
p722
g325
tp723
(dp724
S'suggests'
p725
S'fdutils'
p726
sS'configs'
p727
(lp728
S'kernelarch-arm/config'
p729
aS'armel/config'
p730
asS'install-stem'
p731
S'vmlinuz'
p732
ss(S'image'
p733
g358
tp734
(dp735
S'install-stem'
p736
S'vmlinuz'
p737
sS'configs'
p738
(lp739
sS'bootloaders'
p740
(lp741
S's390-tools'
p742
ass(S'build'
p743
g85
NS'686-pae'
p744
tp745
(dp746
S'debug-info'
p747
I01
ss(S'relations'
p748
g325
tp749
(dp750
S'headers%gcc-4.9'
p751
S'linux-compiler-gcc-4.9-arm'
p752
ss(S'image'
p753
g143
tp754
(dp755
S'suggests'
p756
S'palo'
p757
sS'install-stem'
p758
S'vmlinux'
p759
ss(S'image'
p760
g112
NS'powerpc64'
p761
tp762
(dp763
S'configs'
p764
(lp765
S'kernelarch-powerpc/config-arch-64'
p766
aS'kernelarch-powerpc/config-arch-64-be'
p767
ass(S'image'
p768
g404
tp769
(dp770
S'suggests'
p771
S'mkvmlinuz'
p772
sS'install-stem'
p773
S'vmlinux'
p774
ss(S'relations'
p775
g143
tp776
(dp777
S'gcc-4.9'
p778
S'gcc-4.9, binutils-hppa64, gcc-4.9-hppa64'
p779
ss(S'description'
p780
g85
NS'amd64'
p781
tp782
(dp783
S'hardware'
p784
S'64-bit PCs'
p785
sS'parts'
p786
(lp787
S'xen'
p788
asS'hardware-long'
p789
S'PCs with AMD64, Intel 64 or VIA Nano processors'
p790
ss(S'image'
p791
g52
NS'r4k-ip22'
p792
tp793
(dp794
S'configs'
p795
(lp796
S'kernelarch-mips/config.r4k-ip22'
p797
ass(S'image'
p798
g288
NS'sparc64-smp'
p799
tp800
(dp801
S'configs'
p802
(lp803
S'kernelarch-sparc/config-smp'
p804
ass(S'description'
p805
g302
NS'powerpc64le'
p806
tp807
(dp808
S'hardware'
p809
S'Little-endian 64-bit PowerPC'
p810
ss(S'description'
p811
g607
NS'sparc64'
p812
tp813
(dp814
S'hardware'
p815
S'uniprocessor 64-bit UltraSPARC'
p816
ss(S'image'
p817
g325
NS'kirkwood'
p818
tp819
(dp820
S'check-size'
p821
I2097080
sS'check-size-with-dtb'
p822
I01
sS'breaks'
p823
S'flash-kernel (<< 3.30~)'
p824
sS'recommends'
p825
S'uboot-mkimage'
p826
sS'configs'
p827
(lp828
S'armel/config-reduced'
p829
aS'armel/config.kirkwood'
p830
ass(g133
g143
g135
tp831
(dp832
g138
I01
sg139
(lp833
S'parisc'
p834
aS'parisc64-smp'
p835
ass(S'image'
p836
g52
NS'r5k-ip32'
p837
tp838
(dp839
S'configs'
p840
(lp841
S'kernelarch-mips/config.r5k-ip32'
p842
ass(S'image'
p843
g112
NS'powerpc-smp'
p844
tp845
(dp846
S'configs'
p847
(lp848
S'powerpc/config.powerpc'
p849
aS'powerpc/config.powerpc-smp'
p850
ass(S'base'
p851
g288
tp852
(dp853
S'kernel-arch'
p854
S'sparc'
p855
sg196
(lp856
g135
ass(S'image'
p857
g18
NS'5kc-malta'
p858
tp859
(dp860
S'configs'
p861
(lp862
S'kernelarch-mips/config.5kc-malta'
p863
ass(S'base'
p864
S'or1k'
p865
tp866
(dp867
S'kernel-arch'
p868
S'openrisc'
p869
sS'featuresets'
p870
(lp871
ss(S'description'
p872
g27
NS'sh7785lcr'
p873
tp874
(dp875
S'hardware'
p876
S'sh7785lcr'
p877
sS'hardware-long'
p878
S'Renesas SH7785 reference board'
p879
ss(S'image'
p880
g52
tp881
(dp882
S'install-stem'
p883
S'vmlinux'
p884
ss(g133
g498
g135
tp885
(dp886
g138
I01
sg139
(lp887
S'sb1-bcm91250a'
p888
aS'5kc-malta'
p889
aS'loongson-3'
p890
aS'octeon'
p891
ass(S'image'
p892
g498
NS'sb1-bcm91250a'
p893
tp894
(dp895
S'configs'
p896
(lp897
S'kernelarch-mips/config.sb1-bcm91250a'
p898
ass(S'image'
p899
g134
tp900
(dp901
S'suggests'
p902
S'mkvmlinuz'
p903
sS'configs'
p904
(lp905
sS'install-stem'
p906
S'vmlinux'
p907
ss(S'description'
p908
S'm68k'
p909
NS'm68k'
p910
tp911
(dp912
S'hardware'
p913
S'Motorola MC68020+ family'
p914
ss(S'image'
p915
g85
tp916
(dp917
S'install-stem'
p918
S'vmlinuz'
p919
sS'configs'
p920
(lp921
sS'bootloaders'
p922
(lp923
S'grub-pc'
p924
aS'extlinux'
p925
ass(S'build'
p926
g358
tp927
(dp928
S'image-file'
p929
S'arch/s390/boot/image'
p930
ss(g133
g607
g135
tp931
(dp932
g138
I01
sg139
(lp933
S'sparc64'
p934
aS'sparc64-smp'
p935
ass(S'base'
p936
NS'rt'
p937
tp938
(dp939
S'enabled'
p940
I00
ss(g133
g43
g135
tp941
(dp942
g138
I01
sg139
(lp943
S'alpha-generic'
p944
aS'alpha-smp'
p945
ass(S'description'
p946
g85
g167
S'686-pae'
p947
tp948
(dp949
S'parts'
p950
(lp951
S'xen'
p952
ass(g133
g67
g135
tp953
(dp954
g138
I01
sg139
(lp955
S'itanium'
p956
aS'mckinley'
p957
ass(S'base'
p958
g134
tp959
(dp960
S'kernel-arch'
p961
S'powerpc'
p962
sg196
(lp963
g135
ass(S'description'
p964
g5
NS'amd64'
p965
tp966
(dp967
S'hardware'
p968
S'64-bit PCs'
p969
sS'hardware-long'
p970
S'PCs with AMD64, Intel 64 or VIA Nano processors'
p971
ss(S'build'
p972
g565
tp973
(dp974
S'image-file'
p975
S'arch/s390/boot/image'
p976
ss(g133
g52
g135
tp977
(dp978
g138
I01
sg139
(lp979
S'r4k-ip22'
p980
aS'r5k-ip32'
p981
aS'sb1-bcm91250a'
p982
aS'4kc-malta'
p983
aS'5kc-malta'
p984
aS'octeon'
p985
ass(S'build'
p986
g52
tp987
(dp988
S'image-file'
p989
S'vmlinux'
p990
ss(S'image'
p991
g18
tp992
(dp993
S'install-stem'
p994
S'vmlinux'
p995
ss(g133
g27
g135
tp996
(dp997
g138
I01
sg139
(lp998
S'sh7751r'
p999
aS'sh7785lcr'
p1000
ass(S'base'
p1001
S'x32'
p1002
tp1003
(dp1004
S'kernel-arch'
p1005
S'x86'
p1006
sS'featuresets'
p1007
(lp1008
ss(S'build'
p1009
g27
tp1010
(dp1011
S'image-file'
p1012
S'arch/sh/boot/zImage'
p1013
ss(S'image'
p1014
g909
tp1015
(dp1016
S'suggests'
p1017
S'vmelilo, fdutils'
p1018
sS'install-stem'
p1019
S'vmlinuz'
p1020
ss(S'base'
p1021
g94
S'none'
p1022
tp1023
(dp1024
S'flavours'
p1025
(lp1026
S'arm64'
p1027
ass(S'description'
p1028
g52
NS'r5k-ip32'
p1029
tp1030
(dp1031
S'hardware'
p1032
S'SGI IP32'
p1033
sS'hardware-long'
p1034
S'SGI IP32 systems (O2)'
p1035
ss(S'build'
p1036
g18
tp1037
(dp1038
S'image-file'
p1039
S'vmlinux'
p1040
ss(S'build'
p1041
g67
tp1042
(dp1043
S'image-file'
p1044
S'vmlinux.gz'
p1045
ss(S'base'
p1046
g213
tp1047
(dp1048
S'kernel-arch'
p1049
S'arm'
p1050
sg196
(lp1051
g135
ass(S'description'
p1052
g52
NS'4kc-malta'
p1053
tp1054
(dp1055
S'hardware'
p1056
S'MIPS Malta'
p1057
sS'hardware-long'
p1058
S'MIPS Malta boards'
p1059
ss(S'image'
p1060
g27
tp1061
(dp1062
S'suggests'
p1063
S'fdutils'
p1064
sS'install-stem'
p1065
S'vmlinuz'
p1066
ss(S'image'
p1067
g607
NS'sparc32'
p1068
tp1069
(dp1070
S'image-postproc'
p1071
S'sparc32-image-postproc'
p1072
ss(S'base'
p1073
g143
tp1074
(dp1075
S'kernel-arch'
p1076
S'parisc'
p1077
sg196
(lp1078
g135
ass(S'description'
p1079
g325
NS'kirkwood'
p1080
tp1081
(dp1082
S'hardware'
p1083
S'Marvell Kirkwood'
p1084
sS'hardware-long'
p1085
S'Marvell Kirkwood based systems (SheevaPlug, QNAP TS-119/TS-219, etc)'
p1086
ss(S'image'
p1087
g607
NS'sparc64-smp'
p1088
tp1089
(dp1090
S'configs'
p1091
(lp1092
S'kernelarch-sparc/config-smp'
p1093
ass(S'image'
p1094
g607
tp1095
(dp1096
S'suggests'
p1097
S'silo, fdutils'
p1098
sS'configs'
p1099
(lp1100
sS'install-stem'
p1101
S'vmlinuz'
p1102
ss(S'description'
p1103
tp1104
(dp1105
S'part-long-up'
p1106
S'This kernel is not suitable for SMP (multi-processor,\nmulti-core or hyper-threaded) systems.'
p1107
sS'part-long-xen'
p1108
S'This kernel also runs on a Xen hypervisor.\nIt supports both privileged (dom0) and unprivileged (domU) operation.'
p1109
ss(S'build'
p1110
g288
tp1111
(dp1112
S'image-file'
p1113
S'arch/sparc/boot/zImage'
p1114
ss(S'relations'
p1115
g213
tp1116
(dp1117
S'headers%gcc-4.9'
p1118
S'linux-compiler-gcc-4.9-arm'
p1119
ss(S'description'
p1120
g112
NS'powerpc64'
p1121
tp1122
(dp1123
S'hardware'
p1124
S'64-bit PowerPC'
p1125
ss(S'image'
p1126
g565
NS's390x'
p1127
tp1128
(dp1129
S'configs'
p1130
(lp1131
S'kernelarch-s390/config-arch-64'
p1132
ass(S'image'
p1133
g498
NS'loongson-3'
p1134
tp1135
(dp1136
S'configs'
p1137
(lp1138
S'kernelarch-mips/config.loongson-3'
p1139
ass(S'build'
p1140
g43
tp1141
(dp1142
S'image-file'
p1143
S'arch/alpha/boot/vmlinux.gz'
p1144
ss(S'relations'
p1145
g565
tp1146
(dp1147
S'headers%gcc-4.8'
p1148
S'linux-compiler-gcc-4.8-s390'
p1149
ss(S'description'
p1150
g235
NS'loongson-2f'
p1151
tp1152
(dp1153
S'hardware'
p1154
S'Loongson 2F'
p1155
sS'hardware-long'
p1156
S'Lemote Loongson 2F systems'
p1157
ss(S'base'
p1158
g112
tp1159
(dp1160
S'kernel-arch'
p1161
S'powerpc'
p1162
sg196
(lp1163
g135
ass(S'image'
p1164
g235
NS'sb1-bcm91250a'
p1165
tp1166
(dp1167
S'configs'
p1168
(lp1169
S'kernelarch-mips/config.sb1-bcm91250a'
p1170
ass(S'description'
p1171
g565
NS's390x'
p1172
tp1173
(dp1174
S'hardware'
p1175
S'IBM zSeries'
p1176
ss(S'description'
p1177
g235
NS'4kc-malta'
p1178
tp1179
(dp1180
S'hardware'
p1181
S'MIPS Malta'
p1182
sS'hardware-long'
p1183
S'MIPS Malta boards'
p1184
ss(S'image'
p1185
g565
tp1186
(dp1187
S'install-stem'
p1188
S'vmlinuz'
p1189
sS'configs'
p1190
(lp1191
sS'bootloaders'
p1192
(lp1193
S's390-tools'
p1194
ass(S'image'
p1195
g302
tp1196
(dp1197
S'suggests'
p1198
S'mkvmlinuz'
p1199
sS'configs'
p1200
(lp1201
sS'install-stem'
p1202
S'vmlinux'
p1203
ss(S'base'
p1204
g325
tp1205
(dp1206
S'kernel-arch'
p1207
S'arm'
p1208
sg196
(lp1209
g135
ass(S'base'
p1210
g94
tp1211
(dp1212
S'kernel-arch'
p1213
S'arm64'
p1214
sS'featuresets'
p1215
(lp1216
S'none'
p1217
ass(S'image'
p1218
g85
NS'amd64'
p1219
tp1220
(dp1221
S'configs'
p1222
(lp1223
S'kernelarch-x86/config-arch-64'
p1224
asS'recommends'
p1225
S'libc6-i686'
p1226
ss(S'image'
p1227
g213
tp1228
(dp1229
S'suggests'
p1230
S'fdutils'
p1231
sS'configs'
p1232
(lp1233
S'kernelarch-arm/config'
p1234
aS'armhf/config'
p1235
asS'install-stem'
p1236
S'vmlinuz'
p1237
ss(S'abi'
p1238
tp1239
(dp1240
S'abiname'
p1241
S'trunk'
p1242
ss(S'image'
p1243
g498
NS'5kc-malta'
p1244
tp1245
(dp1246
S'configs'
p1247
(lp1248
S'kernelarch-mips/config.5kc-malta'
p1249
ass(g133
g404
g135
tp1250
(dp1251
g138
I01
sg139
(lp1252
S'powerpcspe'
p1253
ass(g133
g909
g135
tp1254
(dp1255
g138
I01
sg139
(lp1256
S'm68k'
p1257
ass(S'image'
p1258
g18
NS'sb1-bcm91250a'
p1259
tp1260
(dp1261
S'configs'
p1262
(lp1263
S'kernelarch-mips/config.sb1-bcm91250a'
p1264
ass(S'base'
p1265
g85
g167
tp1266
(dp1267
S'flavours'
p1268
(lp1269
S'586'
p1270
aS'686-pae'
p1271
aS'amd64'
p1272
ass(S'base'
p1273
tp1274
(dp1275
S'arches'
p1276
(lp1277
S'alpha'
p1278
aS'amd64'
p1279
aS'arm64'
p1280
aS'armel'
p1281
aS'armhf'
p1282
aS'hppa'
p1283
aS'i386'
p1284
aS'ia64'
p1285
aS'm68k'
p1286
aS'mips'
p1287
aS'mipsel'
p1288
aS'mips64'
p1289
aS'mips64el'
p1290
aS'or1k'
p1291
aS'powerpc'
p1292
aS'powerpcspe'
p1293
aS'ppc64'
p1294
aS'ppc64el'
p1295
aS's390'
p1296
aS's390x'
p1297
aS'sh4'
p1298
aS'sparc'
p1299
aS'sparc64'
p1300
aS'x32'
p1301
asS'featuresets'
p1302
(lp1303
S'none'
p1304
aS'rt'
p1305
asS'compiler'
p1306
S'gcc-4.9'
p1307
ss(S'description'
p1308
Ng78
tp1309
(dp1310
S'part-long-rt'
p1311
S'This kernel includes the PREEMPT_RT realtime patch set.'
p1312
sS'parts'
p1313
(lp1314
S'rt'
p1315
asS'part-short-rt'
p1316
S'PREEMPT_RT'
p1317
ss(S'build'
p1318
g909
tp1319
(dp1320
S'image-file'
p1321
S'vmlinux.gz'
p1322
ss(S'build'
p1323
g325
tp1324
(dp1325
S'image-file'
p1326
S'arch/arm/boot/zImage'
p1327
ss(S'image'
p1328
g607
NS'sparc64'
p1329
tp1330
(dp1331
S'configs'
p1332
(lp1333
S'kernelarch-sparc/config-up'
p1334
ass(S'image'
p1335
g288
tp1336
(dp1337
S'suggests'
p1338
S'silo, fdutils'
p1339
sS'configs'
p1340
(lp1341
sS'install-stem'
p1342
S'vmlinuz'
p1343
ss(S'build'
p1344
g213
tp1345
(dp1346
S'image-file'
p1347
S'arch/arm/boot/zImage'
p1348
ss(S'build'
p1349
g565
NS's390x'
p1350
tp1351
(dp1352
S'debug-info'
p1353
I01
ss(S'image'
p1354
g358
NS's390x'
p1355
tp1356
(dp1357
S'configs'
p1358
(lp1359
S'kernelarch-s390/config-arch-64'
p1360
ass(S'base'
p1361
g302
tp1362
(dp1363
S'kernel-arch'
p1364
S'powerpc'
p1365
sg196
(lp1366
g135
ass(S'base'
p1367
g498
tp1368
(dp1369
S'kernel-arch'
p1370
S'mips'
p1371
sg196
(lp1372
g135
ass(S'base'
p1373
g607
tp1374
(dp1375
S'kernel-arch'
p1376
S'sparc'
p1377
sg196
(lp1378
g135
ass(S'base'
p1379
g909
tp1380
(dp1381
S'kernel-arch'
p1382
S'm68k'
p1383
sg196
(lp1384
g135
asS'cflags'
p1385
S'-ffreestanding'
p1386
sS'compiler'
p1387
S'gcc-4.8'
p1388
ss(S'description'
p1389
g235
NS'loongson-2e'
p1390
tp1391
(dp1392
S'hardware'
p1393
S'Loongson 2E'
p1394
sS'hardware-long'
p1395
S'Lemote Loongson 2E systems'
p1396
ss(S'image'
p1397
tp1398
(dp1399
S'initramfs-generators'
p1400
(lp1401
S'initramfs-tools'
p1402
aS'initramfs-fallback'
p1403
asS'type'
p1404
S'plain'
p1405
ss(S'image'
p1406
g235
NS'loongson-2e'
p1407
tp1408
(dp1409
S'configs'
p1410
(lp1411
S'kernelarch-mips/config.loongson-2e'
p1412
ass(g133
g288
g135
tp1413
(dp1414
g138
I01
sg139
(lp1415
S'sparc64'
p1416
aS'sparc64-smp'
p1417
ass(S'image'
p1418
g498
tp1419
(dp1420
S'install-stem'
p1421
S'vmlinux'
p1422
ss(S'description'
p1423
g325
NS'orion5x'
p1424
tp1425
(dp1426
S'hardware'
p1427
S'Marvell Orion'
p1428
sS'hardware-long'
p1429
S'Marvell Orion 5181, 5182 and 5281 based systems (QNAP TS-109/TS-209, etc)'
p1430
ss(S'description'
p1431
g607
NS'sparc32'
p1432
tp1433
(dp1434
S'hardware'
p1435
S'uniprocessor sparc32 (sun4m)'
p1436
ss(S'image'
p1437
g52
NS'5kc-malta'
p1438
tp1439
(dp1440
S'configs'
p1441
(lp1442
S'kernelarch-mips/config.5kc-malta'
p1443
ass(S'description'
p1444
g134
NS'powerpc64'
p1445
tp1446
(dp1447
S'hardware'
p1448
S'64-bit PowerPC'
p1449
ss(S'image'
p1450
g288
NS'sparc64'
p1451
tp1452
(dp1453
S'configs'
p1454
(lp1455
S'kernelarch-sparc/config-up'
p1456
ass(g133
g18
g135
tp1457
(dp1458
g138
I01
sg139
(lp1459
S'sb1-bcm91250a'
p1460
aS'5kc-malta'
p1461
aS'octeon'
p1462
ass(S'image'
p1463
g94
tp1464
(dp1465
S'install-stem'
p1466
S'vmlinuz'
p1467
ss(S'image'
p1468
g498
NS'octeon'
p1469
tp1470
(dp1471
S'configs'
p1472
(lp1473
S'kernelarch-mips/config.octeon'
p1474
ass(S'description'
p1475
g213
NS'armmp-lpae'
p1476
tp1477
(dp1478
S'hardware'
p1479
S'ARMv7 multiplatform compatible SoCs supporting LPAE'
p1480
sS'hardware-long'
p1481
S'ARMv7 multiplatform kernel supporting LPAE. See\nhttps://wiki.debian.org/DebianKernel/ARMMP for details of supported\nplatforms.'
p1482
ss(S'build'
p1483
g85
tp1484
(dp1485
S'image-file'
p1486
S'arch/x86/boot/bzImage'
p1487
ss(g133
g302
g135
tp1488
(dp1489
g138
I01
sg139
(lp1490
S'powerpc64le'
p1491
ass(S'image'
p1492
g5
NS'amd64'
p1493
tp1494
(dp1495
S'configs'
p1496
(lp1497
S'kernelarch-x86/config-arch-64'
p1498
asstp1499
Rp1500
.