ccopy_reg
_reconstructor
p0
(cdebian_linux.config
ConfigCore
p1
c__builtin__
dict
p2
(dp3
(S'image'
p4
S'amd64'
p5
tp6
(dp7
S'install-stem'
p8
S'vmlinuz'
p9
sS'configs'
p10
(lp11
sS'bootloaders'
p12
(lp13
S'grub-pc'
p14
aS'grub-efi'
p15
aS'extlinux'
p16
ass(S'description'
p17
S'mips64'
p18
NS'5kc-malta'
p19
tp20
(dp21
S'hardware'
p22
S'MIPS Malta'
p23
sS'hardware-long'
p24
S'MIPS Malta boards'
p25
ss(S'image'
p26
S'sh4'
p27
NS'sh7785lcr'
p28
tp29
(dp30
S'check-size'
p31
I4194304
sS'recommends'
p32
S'uboot-mkimage'
p33
ss(S'image'
p34
S'mipsel'
p35
NS'5kc-malta'
p36
tp37
(dp38
S'configs'
p39
(lp40
S'kernelarch-mips/config.5kc-malta'
p41
ass(S'base'
p42
g5
S'none'
p43
tp44
(dp45
S'flavours'
p46
(lp47
S'amd64'
p48
ass(S'description'
p49
S'hppa'
p50
NS'parisc'
p51
tp52
(dp53
S'hardware'
p54
S'32-bit PA-RISC'
p55
sS'hardware-long'
p56
S'HP PA-RISC 32-bit systems with max 4 GB RAM'
p57
ss(S'description'
p58
g35
NS'5kc-malta'
p59
tp60
(dp61
S'hardware'
p62
S'MIPS Malta (64-bit)'
p63
sS'hardware-long'
p64
S'MIPS Malta boards (64-bit)'
p65
ss(S'description'
p66
S'mips'
p67
NS'octeon'
p68
tp69
(dp70
S'hardware'
p71
S'Octeon'
p72
sS'hardware-long'
p73
S'Cavium Networks Octeon'
p74
ss(S'build'
p75
S'armel'
p76
tp77
(dp78
S'image-file'
p79
S'arch/arm/boot/zImage'
p80
ss(S'image'
p81
S'ia64'
p82
tp83
(dp84
S'suggests'
p85
S'fdutils'
p86
sS'bootloaders'
p87
(lp88
S'elilo'
p89
asS'install-stem'
p90
S'vmlinuz'
p91
ss(S'description'
p92
S'sparc64'
p93
NS'sparc64'
p94
tp95
(dp96
S'hardware'
p97
S'uniprocessor 64-bit UltraSPARC'
p98
ss(S'abi'
p99
tp100
(dp101
S'abiname'
p102
S'2'
p103
ss(S'description'
p104
g35
NS'loongson-2f'
p105
tp106
(dp107
S'hardware'
p108
S'Loongson 2F'
p109
sS'hardware-long'
p110
S'Lemote Loongson 2F systems'
p111
ss(S'image'
p112
g18
NS'sb1-bcm91250a'
p113
tp114
(dp115
S'configs'
p116
(lp117
S'kernelarch-mips/config.sb1-bcm91250a'
p118
ass(S'version'
p119
tp120
(dp121
S'abiname'
p122
S'3.19.0-2'
p123
sS'source'
p124
V3.19.3-9
p125
sS'abiname_base'
p126
S'3.19.0'
p127
sS'upstream'
p128
S'3.19'
p129
ss(S'description'
p130
g5
g43
S'amd64'
p131
tp132
(dp133
S'parts'
p134
(lp135
S'xen'
p136
ass(S'image'
p137
g35
NS'sb1-bcm91250a'
p138
tp139
(dp140
S'configs'
p141
(lp142
S'kernelarch-mips/config.sb1-bcm91250a'
p143
ass(S'base'
p144
S'ppc64'
p145
S'none'
p146
tp147
(dp148
S'implicit-flavour'
p149
I01
sS'flavours'
p150
(lp151
S'powerpc64'
p152
ass(S'description'
p153
S'i386'
p154
NS'686-pae'
p155
tp156
(dp157
S'hardware'
p158
S'modern PCs'
p159
sS'parts'
p160
(lp161
S'pae'
p162
asS'hardware-long'
p163
S'PCs with one or more processors supporting PAE'
p164
ss(S'base'
p165
g67
tp166
(dp167
S'kernel-arch'
p168
S'mips'
p169
sS'featuresets'
p170
(lp171
g146
ass(S'build'
p172
g82
tp173
(dp174
S'image-file'
p175
S'vmlinux.gz'
p176
ss(g144
S'armhf'
p177
g146
tp178
(dp179
g149
I01
sg150
(lp180
S'armmp'
p181
aS'armmp-lpae'
p182
ass(S'description'
p183
g177
NS'armmp'
p184
tp185
(dp186
S'hardware'
p187
S'ARMv7 multiplatform compatible SoCs'
p188
sS'hardware-long'
p189
S'ARMv7 multiplatform kernel. See\nhttps://wiki.debian.org/DebianKernel/ARMMP for details of supported\nplatforms'
p190
ss(S'base'
p191
g154
S'rt'
p192
tp193
(dp194
S'flavours'
p195
(lp196
S'686-pae'
p197
ass(S'image'
p198
g154
NS'586'
p199
tp200
(dp201
S'configs'
p202
(lp203
S'kernelarch-x86/config-arch-32'
p204
aS'i386/config.586'
p205
ass(S'base'
p206
g50
NS'parisc64-smp'
p207
tp208
(dp209
S'override-host-type'
p210
S'hppa64-linux-gnu'
p211
sS'cflags'
p212
S'-fno-cse-follow-jumps'
p213
ss(S'image'
p214
S'ppc64el'
p215
tp216
(dp217
S'suggests'
p218
S'mkvmlinuz'
p219
sS'configs'
p220
(lp221
sS'install-stem'
p222
S'vmlinux'
p223
ss(S'relations'
p224
g154
tp225
(dp226
S'headers%gcc-4.9'
p227
S'linux-compiler-gcc-4.9-x86'
p228
ss(S'image'
p229
S'powerpc'
p230
tp231
(dp232
S'suggests'
p233
S'mkvmlinuz'
p234
sS'configs'
p235
(lp236
sS'install-stem'
p237
S'vmlinux'
p238
ss(S'base'
p239
g5
S'rt'
p240
tp241
(dp242
S'flavours'
p243
(lp244
S'amd64'
p245
ass(S'build'
p246
g215
tp247
(dp248
S'image-file'
p249
S'vmlinux'
p250
ss(S'build'
p251
g145
tp252
(dp253
S'image-file'
p254
S'vmlinux'
p255
ss(S'description'
p256
g177
NS'armmp-lpae'
p257
tp258
(dp259
S'hardware'
p260
S'ARMv7 multiplatform compatible SoCs supporting LPAE'
p261
sS'hardware-long'
p262
S'ARMv7 multiplatform kernel supporting LPAE. See\nhttps://wiki.debian.org/DebianKernel/ARMMP for details of supported\nplatforms.'
p263
ss(S'description'
p264
S'sparc'
p265
NS'sparc64'
p266
tp267
(dp268
S'hardware'
p269
S'uniprocessor 64-bit UltraSPARC'
p270
ss(S'description'
p271
g154
S'none'
p272
S'amd64'
p273
tp274
(dp275
S'parts'
p276
(lp277
S'xen'
p278
ass(S'base'
p279
S'arm64'
p280
tp281
(dp282
S'kernel-arch'
p283
S'arm64'
p284
sS'featuresets'
p285
(lp286
S'none'
p287
ass(S'base'
p288
g154
tp289
(dp290
S'kernel-arch'
p291
S'x86'
p292
sS'featuresets'
p293
(lp294
S'none'
p295
aS'rt'
p296
ass(S'base'
p297
g35
tp298
(dp299
S'kernel-arch'
p300
S'mips'
p301
sg170
(lp302
g146
ass(S'description'
p303
g18
NS'sb1-bcm91250a'
p304
tp305
(dp306
S'hardware'
p307
S'BCM91250A'
p308
sS'hardware-long'
p309
S'Broadcom BCM91250A systems (aka SWARM)'
p310
ss(S'relations'
p311
g5
tp312
(dp313
S'headers%gcc-4.9'
p314
S'linux-compiler-gcc-4.9-x86'
p315
ss(g144
g50
g146
tp316
(dp317
g149
I01
sg150
(lp318
S'parisc'
p319
aS'parisc64-smp'
p320
ass(S'description'
p321
g67
NS'4kc-malta'
p322
tp323
(dp324
S'hardware'
p325
S'MIPS Malta'
p326
sS'hardware-long'
p327
S'MIPS Malta boards'
p328
ss(g144
g35
g146
tp329
(dp330
g149
I01
sg150
(lp331
S'sb1-bcm91250a'
p332
aS'4kc-malta'
p333
aS'5kc-malta'
p334
aS'loongson-2e'
p335
aS'loongson-2f'
p336
aS'loongson-3'
p337
ass(S'image'
p338
g230
NS'powerpc-smp'
p339
tp340
(dp341
S'configs'
p342
(lp343
S'powerpc/config.powerpc'
p344
aS'powerpc/config.powerpc-smp'
p345
ass(S'relations'
p346
tp347
(dp348
S'gcc-4.9'
p349
S'gcc-4.9'
p350
sS'gcc-4.8'
p351
S'gcc-4.8'
p352
sS'initramfs-fallback'
p353
S'linux-initramfs-tool'
p354
sS'gcc-4.7'
p355
S'gcc-4.7'
p356
sS'gcc-4.6'
p357
S'gcc-4.6'
p358
sS'initramfs-tools'
p359
S'initramfs-tools (>= 0.110~)'
p360
ss(S'build'
p361
S'alpha'
p362
tp363
(dp364
S'image-file'
p365
S'arch/alpha/boot/vmlinux.gz'
p366
ss(S'build'
p367
S'm68k'
p368
tp369
(dp370
S'image-file'
p371
S'vmlinux.gz'
p372
ss(g144
S'mips64el'
p373
g146
tp374
(dp375
g149
I01
sg150
(lp376
S'sb1-bcm91250a'
p377
aS'5kc-malta'
p378
aS'loongson-3'
p379
aS'octeon'
p380
ass(S'build'
p381
S'powerpcspe'
p382
tp383
(dp384
S'image-file'
p385
S'vmlinux'
p386
ss(S'description'
p387
g35
NS'4kc-malta'
p388
tp389
(dp390
S'hardware'
p391
S'MIPS Malta'
p392
sS'hardware-long'
p393
S'MIPS Malta boards'
p394
ss(g144
g27
g146
tp395
(dp396
g149
I01
sg150
(lp397
S'sh7751r'
p398
aS'sh7785lcr'
p399
ass(S'build'
p400
g50
tp401
(dp402
S'image-file'
p403
S'vmlinux'
p404
ss(S'image'
p405
g76
NS'kirkwood'
p406
tp407
(dp408
S'check-size'
p409
I2097080
sS'check-size-with-dtb'
p410
I01
sS'breaks'
p411
S'flash-kernel (<< 3.30~)'
p412
sS'recommends'
p413
S'uboot-mkimage'
p414
sS'configs'
p415
(lp416
S'armel/config-reduced'
p417
aS'armel/config.kirkwood'
p418
ass(S'description'
p419
g230
NS'powerpc64'
p420
tp421
(dp422
S'hardware'
p423
S'64-bit PowerPC'
p424
ss(S'image'
p425
g362
tp426
(dp427
S'suggests'
p428
S'aboot, fdutils'
p429
sS'install-stem'
p430
S'vmlinuz'
p431
ss(S'description'
p432
g145
NS'powerpc64'
p433
tp434
(dp435
S'hardware'
p436
S'64-bit PowerPC'
p437
ss(S'description'
p438
g5
NS'amd64'
p439
tp440
(dp441
S'hardware'
p442
S'64-bit PCs'
p443
sS'hardware-long'
p444
S'PCs with AMD64, Intel 64 or VIA Nano processors'
p445
ss(S'description'
p446
g373
NS'5kc-malta'
p447
tp448
(dp449
S'hardware'
p450
S'MIPS Malta'
p451
sS'hardware-long'
p452
S'MIPS Malta boards'
p453
ss(S'base'
p454
g76
tp455
(dp456
S'kernel-arch'
p457
S'arm'
p458
sg170
(lp459
g146
ass(S'description'
p460
g82
NS'itanium'
p461
tp462
(dp463
S'hardware'
p464
S'Itanium'
p465
ss(S'image'
p466
g373
tp467
(dp468
S'install-stem'
p469
S'vmlinux'
p470
ss(S'description'
p471
g362
NS'alpha-generic'
p472
tp473
(dp474
S'hardware'
p475
S'Alpha'
p476
sS'hardware-long'
p477
S'DEC Alpha systems with extended kernel start address (Wildfire, Titan, Marvel)'
p478
ss(S'base'
p479
g265
tp480
(dp481
S'kernel-arch'
p482
S'sparc'
p483
sg170
(lp484
g146
ass(S'base'
p485
g382
tp486
(dp487
S'kernel-arch'
p488
S'powerpc'
p489
sg170
(lp490
g146
ass(S'base'
p491
g362
tp492
(dp493
S'kernel-arch'
p494
S'alpha'
p495
sg170
(lp496
g146
ass(g144
g230
g146
tp497
(dp498
g149
I01
sg150
(lp499
S'powerpc'
p500
aS'powerpc-smp'
p501
aS'powerpc64'
p502
ass(S'abi'
p503
NS'rt'
p504
tp505
(dp506
S'ignore-changes'
p507
(lp508
S'*'
p509
ass(g144
S's390'
p510
g146
tp511
(dp512
g149
I01
sg150
(lp513
S's390x'
p514
ass(S'base'
p515
S'or1k'
p516
tp517
(dp518
S'kernel-arch'
p519
S'openrisc'
p520
sS'featuresets'
p521
(lp522
ss(S'description'
p523
g50
NS'parisc64-smp'
p524
tp525
(dp526
S'hardware'
p527
S'multiprocessor 64-bit PA-RISC'
p528
sS'hardware-long'
p529
S'HP PA-RISC 64-bit SMP systems with support for more than 4 GB RAM'
p530
ss(g144
S's390x'
p531
g146
tp532
(dp533
g149
I01
sg150
(lp534
S's390x'
p535
ass(S'description'
p536
g265
NS'sparc64-smp'
p537
tp538
(dp539
S'hardware'
p540
S'multiprocessor 64-bit UltraSPARC'
p541
ss(S'build'
p542
g5
tp543
(dp544
S'debug-info'
p545
I01
sS'image-file'
p546
S'arch/x86/boot/bzImage'
p547
ss(S'description'
p548
g215
NS'powerpc64le'
p549
tp550
(dp551
S'hardware'
p552
S'Little-endian 64-bit PowerPC'
p553
ss(S'description'
p554
g76
NS'kirkwood'
p555
tp556
(dp557
S'hardware'
p558
S'Marvell Kirkwood'
p559
sS'hardware-long'
p560
S'Marvell Kirkwood based systems (SheevaPlug, QNAP TS-119/TS-219, etc)'
p561
ss(S'build'
p562
g265
tp563
(dp564
S'image-file'
p565
S'arch/sparc/boot/zImage'
p566
ss(S'image'
p567
g35
tp568
(dp569
S'install-stem'
p570
S'vmlinux'
p571
ss(S'build'
p572
g230
tp573
(dp574
S'image-file'
p575
S'vmlinux'
p576
ss(S'build'
p577
g280
tp578
(dp579
S'debug-info'
p580
I01
sS'image-file'
p581
S'arch/arm64/boot/Image'
p582
ss(S'image'
p583
g67
NS'r5k-ip32'
p584
tp585
(dp586
S'configs'
p587
(lp588
S'kernelarch-mips/config.r5k-ip32'
p589
ass(S'build'
p590
g35
tp591
(dp592
S'image-file'
p593
S'vmlinux'
p594
ss(S'base'
p595
g18
tp596
(dp597
S'kernel-arch'
p598
S'mips'
p599
sg170
(lp600
g146
ass(S'base'
p601
g5
tp602
(dp603
S'kernel-arch'
p604
S'x86'
p605
sS'featuresets'
p606
(lp607
S'none'
p608
aS'rt'
p609
ass(S'base'
p610
g82
tp611
(dp612
S'kernel-arch'
p613
S'ia64'
p614
sg170
(lp615
g146
asS'compiler'
p616
S'gcc-4.6'
p617
ss(S'description'
p618
g35
NS'sb1-bcm91250a'
p619
tp620
(dp621
S'hardware'
p622
S'BCM91250A'
p623
sS'hardware-long'
p624
S'Broadcom BCM91250A systems (aka SWARM)'
p625
ss(S'image'
p626
g177
NS'armmp-lpae'
p627
tp628
(dp629
S'configs'
p630
(lp631
S'armhf/config.armmp'
p632
aS'armhf/config.lpae'
p633
ass(S'base'
p634
g510
tp635
(dp636
S'kernel-arch'
p637
S's390'
p638
sg170
(lp639
g146
asS'compiler'
p640
S'gcc-4.8'
p641
ss(g144
g76
g146
tp642
(dp643
g149
I01
sg150
(lp644
S'kirkwood'
p645
aS'orion5x'
p646
aS'versatile'
p647
ass(S'description'
p648
g382
tp649
(dp650
S'hardware'
p651
S'32-bit PowerPC with SPE (instead of AltiVec) with SMP support'
p652
ss(S'image'
p653
g373
NS'5kc-malta'
p654
tp655
(dp656
S'configs'
p657
(lp658
S'kernelarch-mips/config.5kc-malta'
p659
ass(S'image'
p660
g373
NS'loongson-3'
p661
tp662
(dp663
S'configs'
p664
(lp665
S'kernelarch-mips/config.loongson-3'
p666
ass(S'description'
p667
g76
NS'orion5x'
p668
tp669
(dp670
S'hardware'
p671
S'Marvell Orion'
p672
sS'hardware-long'
p673
S'Marvell Orion 5181, 5182 and 5281 based systems (QNAP TS-109/TS-209, etc)'
p674
ss(S'description'
p675
g154
tp676
(dp677
S'part-long-pae'
p678
S'This kernel requires PAE (Physical Address Extension).\nThis feature is supported by the Intel Pentium Pro/II/III/4/4M/D, Xeon,\nCore and Atom; AMD Geode NX, Athlon (K7), Duron, Opteron, Sempron,\nTurion or Phenom; Transmeta Efficeon; VIA C7; and some other processors.'
p679
ss(S'description'
p680
g67
NS'sb1-bcm91250a'
p681
tp682
(dp683
S'hardware'
p684
S'BCM91250A'
p685
sS'hardware-long'
p686
S'Broadcom BCM91250A systems (aka SWARM)'
p687
ss(S'description'
p688
g76
NS'versatile'
p689
tp690
(dp691
S'hardware'
p692
S'Versatile'
p693
sS'hardware-long'
p694
S'Versatile systems (PB, AB, Qemu)'
p695
ss(S'build'
p696
g373
tp697
(dp698
S'image-file'
p699
S'vmlinux'
p700
ss(S'description'
p701
g154
NS'amd64'
p702
tp703
(dp704
S'hardware'
p705
S'64-bit PCs'
p706
sS'parts'
p707
(lp708
S'xen'
p709
asS'hardware-long'
p710
S'PCs with AMD64, Intel 64 or VIA Nano processors'
p711
ss(S'description'
p712
g67
NS'r4k-ip22'
p713
tp714
(dp715
S'hardware'
p716
S'SGI IP22'
p717
sS'hardware-long'
p718
S'SGI IP22 systems (Indy, Indigo2)'
p719
ss(S'image'
p720
g76
tp721
(dp722
S'suggests'
p723
S'fdutils'
p724
sS'configs'
p725
(lp726
S'kernelarch-arm/config'
p727
aS'armel/config'
p728
asS'install-stem'
p729
S'vmlinuz'
p730
ss(S'image'
p731
g510
tp732
(dp733
S'install-stem'
p734
S'vmlinuz'
p735
sS'configs'
p736
(lp737
sS'bootloaders'
p738
(lp739
S's390-tools'
p740
ass(S'relations'
p741
g76
tp742
(dp743
S'headers%gcc-4.9'
p744
S'linux-compiler-gcc-4.9-arm'
p745
ss(S'image'
p746
g50
tp747
(dp748
S'suggests'
p749
S'palo'
p750
sS'install-stem'
p751
S'vmlinux'
p752
ss(S'description'
p753
g93
NS'sparc64-smp'
p754
tp755
(dp756
S'hardware'
p757
S'multiprocessor 64-bit UltraSPARC'
p758
ss(g144
g18
g146
tp759
(dp760
g149
I01
sg150
(lp761
S'sb1-bcm91250a'
p762
aS'5kc-malta'
p763
aS'octeon'
p764
ass(S'relations'
p765
g50
tp766
(dp767
S'gcc-4.9'
p768
S'gcc-4.9, binutils-hppa64, gcc-4.9-hppa64'
p769
ss(S'description'
p770
g27
NS'sh7785lcr'
p771
tp772
(dp773
S'hardware'
p774
S'sh7785lcr'
p775
sS'hardware-long'
p776
S'Renesas SH7785 reference board'
p777
ss(S'description'
p778
g35
NS'loongson-2e'
p779
tp780
(dp781
S'hardware'
p782
S'Loongson 2E'
p783
sS'hardware-long'
p784
S'Lemote Loongson 2E systems'
p785
ss(S'image'
p786
g35
NS'loongson-2e'
p787
tp788
(dp789
S'configs'
p790
(lp791
S'kernelarch-mips/config.loongson-2e'
p792
ass(S'description'
p793
g67
NS'r5k-ip32'
p794
tp795
(dp796
S'hardware'
p797
S'SGI IP32'
p798
sS'hardware-long'
p799
S'SGI IP32 systems (O2)'
p800
ss(S'image'
p801
g373
NS'octeon'
p802
tp803
(dp804
S'configs'
p805
(lp806
S'kernelarch-mips/config.octeon'
p807
ass(S'image'
p808
g35
NS'loongson-2f'
p809
tp810
(dp811
S'configs'
p812
(lp813
S'kernelarch-mips/config.loongson-2f'
p814
asS'recommends'
p815
S'libc6-loongson2f'
p816
ss(S'image'
p817
g373
NS'sb1-bcm91250a'
p818
tp819
(dp820
S'configs'
p821
(lp822
S'kernelarch-mips/config.sb1-bcm91250a'
p823
ass(S'image'
p824
g265
NS'sparc64'
p825
tp826
(dp827
S'configs'
p828
(lp829
S'kernelarch-sparc/config-up'
p830
ass(S'relations'
p831
g510
tp832
(dp833
S'headers%gcc-4.8'
p834
S'linux-compiler-gcc-4.8-s390'
p835
ss(S'image'
p836
g67
NS'5kc-malta'
p837
tp838
(dp839
S'configs'
p840
(lp841
S'kernelarch-mips/config.5kc-malta'
p842
ass(S'build'
p843
g154
NS'686-pae'
p844
tp845
(dp846
S'debug-info'
p847
I01
ss(S'base'
p848
g93
tp849
(dp850
S'kernel-arch'
p851
S'sparc'
p852
sg170
(lp853
g146
ass(S'image'
p854
g230
NS'powerpc64'
p855
tp856
(dp857
S'configs'
p858
(lp859
S'kernelarch-powerpc/config-arch-64'
p860
aS'kernelarch-powerpc/config-arch-64-be'
p861
ass(S'base'
p862
g531
tp863
(dp864
S'kernel-arch'
p865
S's390'
p866
sg170
(lp867
g146
asS'compiler'
p868
S'gcc-4.8'
p869
ss(S'image'
p870
g67
tp871
(dp872
S'install-stem'
p873
S'vmlinux'
p874
ss(S'description'
p875
g373
NS'loongson-3'
p876
tp877
(dp878
S'hardware'
p879
S'Loongson 3A/3B'
p880
sS'hardware-long'
p881
S'Loongson 3A or 3B based systems (e.g. from Loongson or Lemote)'
p882
ss(S'image'
p883
g145
tp884
(dp885
S'suggests'
p886
S'mkvmlinuz'
p887
sS'configs'
p888
(lp889
sS'install-stem'
p890
S'vmlinux'
p891
ss(S'base'
p892
NS'rt'
p893
tp894
(dp895
S'enabled'
p896
I00
ss(S'image'
p897
g154
tp898
(dp899
S'install-stem'
p900
S'vmlinuz'
p901
sS'configs'
p902
(lp903
sS'bootloaders'
p904
(lp905
S'grub-pc'
p906
aS'extlinux'
p907
ass(g144
g265
g146
tp908
(dp909
g149
I01
sg150
(lp910
S'sparc64'
p911
aS'sparc64-smp'
p912
ass(S'image'
p913
g280
NS'arm64'
p914
tp915
(dp916
s(g144
g362
g146
tp917
(dp918
g149
I01
sg150
(lp919
S'alpha-generic'
p920
aS'alpha-smp'
p921
ass(S'description'
p922
g154
g272
S'686-pae'
p923
tp924
(dp925
S'parts'
p926
(lp927
S'xen'
p928
ass(S'description'
p929
g362
NS'alpha-smp'
p930
tp931
(dp932
S'hardware'
p933
S'Alpha SMP'
p934
sS'hardware-long'
p935
S'DEC Alpha SMP systems with extended kernel start address (Wildfire, Titan, Marvel)'
p936
ss(g144
g82
g146
tp937
(dp938
g149
I01
sg150
(lp939
S'itanium'
p940
aS'mckinley'
p941
ass(S'base'
p942
g145
tp943
(dp944
S'kernel-arch'
p945
S'powerpc'
p946
sg170
(lp947
g146
ass(S'description'
p948
g67
NS'5kc-malta'
p949
tp950
(dp951
S'hardware'
p952
S'MIPS Malta (64-bit)'
p953
sS'hardware-long'
p954
S'MIPS Malta boards (64-bit)'
p955
ss(S'build'
p956
g531
tp957
(dp958
S'image-file'
p959
S'arch/s390/boot/image'
p960
ss(S'image'
p961
g35
NS'4kc-malta'
p962
tp963
(dp964
S'configs'
p965
(lp966
S'kernelarch-mips/config.4kc-malta'
p967
ass(g144
g67
g146
tp968
(dp969
g149
I01
sg150
(lp970
S'r4k-ip22'
p971
aS'r5k-ip32'
p972
aS'sb1-bcm91250a'
p973
aS'4kc-malta'
p974
aS'5kc-malta'
p975
aS'octeon'
p976
ass(S'build'
p977
g67
tp978
(dp979
S'image-file'
p980
S'vmlinux'
p981
ss(S'description'
p982
g154
NS'586'
p983
tp984
(dp985
S'hardware'
p986
S'older PCs'
p987
sS'parts'
p988
(lp989
S'up'
p990
asS'hardware-long'
p991
S'PCs with a single processor not supporting PAE'
p992
ss(S'base'
p993
S'x32'
p994
tp995
(dp996
S'kernel-arch'
p997
S'x86'
p998
sS'featuresets'
p999
(lp1000
ss(S'image'
p1001
g145
NS'powerpc64'
p1002
tp1003
(dp1004
S'configs'
p1005
(lp1006
S'kernelarch-powerpc/config-arch-64'
p1007
aS'kernelarch-powerpc/config-arch-64-be'
p1008
ass(S'image'
p1009
g368
tp1010
(dp1011
S'suggests'
p1012
S'vmelilo, fdutils'
p1013
sS'install-stem'
p1014
S'vmlinuz'
p1015
ss(S'build'
p1016
g531
NS's390x'
p1017
tp1018
(dp1019
S'debug-info'
p1020
I01
ss(S'base'
p1021
g280
S'none'
p1022
tp1023
(dp1024
S'flavours'
p1025
(lp1026
S'arm64'
p1027
ass(S'build'
p1028
g18
tp1029
(dp1030
S'image-file'
p1031
S'vmlinux'
p1032
ss(S'build'
p1033
g177
tp1034
(dp1035
S'image-file'
p1036
S'arch/arm/boot/zImage'
p1037
ss(S'image'
p1038
g5
NS'amd64'
p1039
tp1040
(dp1041
S'configs'
p1042
(lp1043
S'kernelarch-x86/config-arch-64'
p1044
ass(S'image'
p1045
g265
NS'sparc64-smp'
p1046
tp1047
(dp1048
S'configs'
p1049
(lp1050
S'kernelarch-sparc/config-smp'
p1051
ass(S'base'
p1052
g177
tp1053
(dp1054
S'kernel-arch'
p1055
S'arm'
p1056
sg170
(lp1057
g146
ass(S'image'
p1058
g27
tp1059
(dp1060
S'suggests'
p1061
S'fdutils'
p1062
sS'install-stem'
p1063
S'vmlinuz'
p1064
ss(S'image'
p1065
g93
NS'sparc64-smp'
p1066
tp1067
(dp1068
S'configs'
p1069
(lp1070
S'kernelarch-sparc/config-smp'
p1071
ass(S'base'
p1072
g50
tp1073
(dp1074
S'kernel-arch'
p1075
S'parisc'
p1076
sg170
(lp1077
g146
ass(S'image'
p1078
g265
NS'sparc32'
p1079
tp1080
(dp1081
S'image-postproc'
p1082
S'sparc32-image-postproc'
p1083
ss(S'base'
p1084
g27
tp1085
(dp1086
S'kernel-arch'
p1087
S'sh'
p1088
sg170
(lp1089
g146
ass(S'image'
p1090
g265
tp1091
(dp1092
S'suggests'
p1093
S'silo, fdutils'
p1094
sS'configs'
p1095
(lp1096
sS'install-stem'
p1097
S'vmlinuz'
p1098
ss(S'description'
p1099
tp1100
(dp1101
S'part-long-up'
p1102
S'This kernel is not suitable for SMP (multi-processor,\nmulti-core or hyper-threaded) systems.'
p1103
sS'part-long-xen'
p1104
S'This kernel also runs on a Xen hypervisor.\nIt supports both privileged (dom0) and unprivileged (domU) operation.'
p1105
ss(S'description'
p1106
g510
NS's390x'
p1107
tp1108
(dp1109
S'hardware'
p1110
S'IBM zSeries'
p1111
ss(S'build'
p1112
g93
tp1113
(dp1114
S'image-file'
p1115
S'arch/sparc/boot/zImage'
p1116
ss(S'relations'
p1117
g177
tp1118
(dp1119
S'headers%gcc-4.9'
p1120
S'linux-compiler-gcc-4.9-arm'
p1121
ss(S'image'
p1122
g215
NS'powerpc64le'
p1123
tp1124
(dp1125
S'configs'
p1126
(lp1127
S'kernelarch-powerpc/config-arch-64'
p1128
aS'kernelarch-powerpc/config-arch-64-le'
p1129
ass(S'description'
p1130
g230
NS'powerpc-smp'
p1131
tp1132
(dp1133
S'hardware'
p1134
S'multiprocessor 32-bit PowerPC'
p1135
ss(S'image'
p1136
g93
tp1137
(dp1138
S'suggests'
p1139
S'silo, fdutils'
p1140
sS'configs'
p1141
(lp1142
sS'install-stem'
p1143
S'vmlinuz'
p1144
ss(S'image'
p1145
g531
NS's390x'
p1146
tp1147
(dp1148
S'configs'
p1149
(lp1150
S'kernelarch-s390/config-arch-64'
p1151
ass(S'description'
p1152
g27
NS'sh7751r'
p1153
tp1154
(dp1155
S'hardware'
p1156
S'sh7751r'
p1157
sS'hardware-long'
p1158
S'Renesas SH7751R R2D plus board'
p1159
ss(S'relations'
p1160
g531
tp1161
(dp1162
S'headers%gcc-4.8'
p1163
S'linux-compiler-gcc-4.8-s390'
p1164
ss(S'base'
p1165
g230
tp1166
(dp1167
S'kernel-arch'
p1168
S'powerpc'
p1169
sg170
(lp1170
g146
ass(S'image'
p1171
g18
NS'octeon'
p1172
tp1173
(dp1174
S'configs'
p1175
(lp1176
S'kernelarch-mips/config.octeon'
p1177
ass(S'image'
p1178
g67
NS'4kc-malta'
p1179
tp1180
(dp1181
S'configs'
p1182
(lp1183
S'kernelarch-mips/config.4kc-malta'
p1184
ass(S'image'
p1185
g76
NS'orion5x'
p1186
tp1187
(dp1188
S'check-size'
p1189
I1572792
sS'check-size-with-dtb'
p1190
I01
sS'configs'
p1191
(lp1192
S'armel/config-reduced'
p1193
aS'armel/config.orion5x'
p1194
asS'recommends'
p1195
S'uboot-mkimage'
p1196
ss(S'description'
p1197
g531
NS's390x'
p1198
tp1199
(dp1200
S'hardware'
p1201
S'IBM zSeries'
p1202
ss(S'image'
p1203
g18
tp1204
(dp1205
S'install-stem'
p1206
S'vmlinux'
p1207
ss(S'build'
p1208
g510
tp1209
(dp1210
S'image-file'
p1211
S'arch/s390/boot/image'
p1212
ss(S'image'
p1213
g382
tp1214
(dp1215
S'suggests'
p1216
S'mkvmlinuz'
p1217
sS'install-stem'
p1218
S'vmlinux'
p1219
ss(S'description'
p1220
g368
NS'm68k'
p1221
tp1222
(dp1223
S'hardware'
p1224
S'Motorola MC68020+ family'
p1225
ss(S'image'
p1226
g177
tp1227
(dp1228
S'suggests'
p1229
S'fdutils'
p1230
sS'configs'
p1231
(lp1232
S'kernelarch-arm/config'
p1233
aS'armhf/config'
p1234
asS'install-stem'
p1235
S'vmlinuz'
p1236
ss(S'image'
p1237
g510
NS's390x'
p1238
tp1239
(dp1240
S'configs'
p1241
(lp1242
S'kernelarch-s390/config-arch-64'
p1243
ass(S'xen'
p1244
g5
g43
S'amd64'
p1245
tp1246
(dp1247
S'flavours'
p1248
(lp1249
S'amd64'
p1250
ass(g144
g382
g146
tp1251
(dp1252
g149
I01
sg150
(lp1253
S'powerpcspe'
p1254
ass(S'image'
p1255
g154
NS'amd64'
p1256
tp1257
(dp1258
S'configs'
p1259
(lp1260
S'kernelarch-x86/config-arch-64'
p1261
asS'recommends'
p1262
S'libc6-i686'
p1263
ss(g144
g368
g146
tp1264
(dp1265
g149
I01
sg150
(lp1266
S'm68k'
p1267
ass(S'base'
p1268
g154
g272
tp1269
(dp1270
S'flavours'
p1271
(lp1272
S'586'
p1273
aS'686-pae'
p1274
aS'amd64'
p1275
ass(S'base'
p1276
tp1277
(dp1278
S'arches'
p1279
(lp1280
S'alpha'
p1281
aS'amd64'
p1282
aS'arm64'
p1283
aS'armel'
p1284
aS'armhf'
p1285
aS'hppa'
p1286
aS'i386'
p1287
aS'ia64'
p1288
aS'm68k'
p1289
aS'mips'
p1290
aS'mipsel'
p1291
aS'mips64'
p1292
aS'mips64el'
p1293
aS'or1k'
p1294
aS'powerpc'
p1295
aS'powerpcspe'
p1296
aS'ppc64'
p1297
aS'ppc64el'
p1298
aS's390'
p1299
aS's390x'
p1300
aS'sh4'
p1301
aS'sparc'
p1302
aS'sparc64'
p1303
aS'x32'
p1304
asS'featuresets'
p1305
(lp1306
S'none'
p1307
aS'rt'
p1308
asS'compiler'
p1309
S'gcc-4.9'
p1310
ss(S'image'
p1311
g67
NS'sb1-bcm91250a'
p1312
tp1313
(dp1314
S'configs'
p1315
(lp1316
S'kernelarch-mips/config.sb1-bcm91250a'
p1317
ass(S'image'
p1318
g67
NS'octeon'
p1319
tp1320
(dp1321
S'configs'
p1322
(lp1323
S'kernelarch-mips/config.octeon'
p1324
ass(S'build'
p1325
g510
NS's390x'
p1326
tp1327
(dp1328
S'debug-info'
p1329
I01
ss(S'image'
p1330
g154
NS'686-pae'
p1331
tp1332
(dp1333
S'configs'
p1334
(lp1335
S'kernelarch-x86/config-arch-32'
p1336
aS'i386/config.686-pae'
p1337
asS'recommends'
p1338
S'libc6-i686'
p1339
ss(S'base'
p1340
g215
tp1341
(dp1342
S'kernel-arch'
p1343
S'powerpc'
p1344
sg170
(lp1345
g146
ass(S'base'
p1346
g373
tp1347
(dp1348
S'kernel-arch'
p1349
S'mips'
p1350
sg170
(lp1351
g146
ass(S'base'
p1352
g368
tp1353
(dp1354
S'kernel-arch'
p1355
S'm68k'
p1356
sg170
(lp1357
g146
asS'cflags'
p1358
S'-ffreestanding'
p1359
sS'compiler'
p1360
S'gcc-4.8'
p1361
ss(S'image'
p1362
tp1363
(dp1364
S'initramfs-generators'
p1365
(lp1366
S'initramfs-tools'
p1367
aS'initramfs-fallback'
p1368
asS'type'
p1369
S'plain'
p1370
ss(S'description'
p1371
g280
NS'arm64'
p1372
tp1373
(dp1374
S'hardware'
p1375
S'64-bit ARMv8 machines'
p1376
ss(g144
g93
g146
tp1377
(dp1378
g149
I01
sg150
(lp1379
S'sparc64'
p1380
aS'sparc64-smp'
p1381
ass(S'description'
p1382
Ng504
tp1383
(dp1384
S'part-long-rt'
p1385
S'This kernel includes the PREEMPT_RT realtime patch set.'
p1386
sS'parts'
p1387
(lp1388
S'rt'
p1389
asS'part-short-rt'
p1390
S'PREEMPT_RT'
p1391
ss(S'description'
p1392
g18
NS'octeon'
p1393
tp1394
(dp1395
S'hardware'
p1396
S'Octeon'
p1397
sS'hardware-long'
p1398
S'Cavium Networks Octeon'
p1399
ss(S'build'
p1400
g154
tp1401
(dp1402
S'image-file'
p1403
S'arch/x86/boot/bzImage'
p1404
ss(S'description'
p1405
g82
NS'mckinley'
p1406
tp1407
(dp1408
S'hardware'
p1409
S'Itanium II'
p1410
ss(S'build'
p1411
g27
tp1412
(dp1413
S'image-file'
p1414
S'arch/sh/boot/zImage'
p1415
ss(S'image'
p1416
g531
tp1417
(dp1418
S'install-stem'
p1419
S'vmlinuz'
p1420
sS'configs'
p1421
(lp1422
sS'bootloaders'
p1423
(lp1424
S's390-tools'
p1425
ass(S'description'
p1426
g230
NS'powerpc'
p1427
tp1428
(dp1429
S'hardware'
p1430
S'uniprocessor 32-bit PowerPC'
p1431
ss(S'description'
p1432
g265
NS'sparc32'
p1433
tp1434
(dp1435
S'hardware'
p1436
S'uniprocessor sparc32 (sun4m)'
p1437
ss(S'image'
p1438
g280
tp1439
(dp1440
S'install-stem'
p1441
S'vmlinuz'
p1442
ss(S'image'
p1443
g18
NS'5kc-malta'
p1444
tp1445
(dp1446
S'configs'
p1447
(lp1448
S'kernelarch-mips/config.5kc-malta'
p1449
ass(S'image'
p1450
g93
NS'sparc64'
p1451
tp1452
(dp1453
S'configs'
p1454
(lp1455
S'kernelarch-sparc/config-up'
p1456
ass(S'image'
p1457
g67
NS'r4k-ip22'
p1458
tp1459
(dp1460
S'configs'
p1461
(lp1462
S'kernelarch-mips/config.r4k-ip22'
p1463
ass(S'image'
p1464
g35
NS'loongson-3'
p1465
tp1466
(dp1467
S'configs'
p1468
(lp1469
S'kernelarch-mips/config.loongson-3'
p1470
ass(S'description'
p1471
g373
NS'sb1-bcm91250a'
p1472
tp1473
(dp1474
S'hardware'
p1475
S'BCM91250A'
p1476
sS'hardware-long'
p1477
S'Broadcom BCM91250A systems (aka SWARM)'
p1478
ss(g144
g215
g146
tp1479
(dp1480
g149
I01
sg150
(lp1481
S'powerpc64le'
p1482
ass(S'description'
p1483
g373
NS'octeon'
p1484
tp1485
(dp1486
S'hardware'
p1487
S'Octeon'
p1488
sS'hardware-long'
p1489
S'Cavium Networks Octeon'
p1490
ss(S'description'
p1491
g35
NS'loongson-3'
p1492
tp1493
(dp1494
S'hardware'
p1495
S'Loongson 3A/3B'
p1496
sS'hardware-long'
p1497
S'Loongson 3A or 3B based systems (e.g. from Loongson or Lemote)'
p1498
sstp1499
Rp1500
.